CCS PCM C Compiler, Version 5.025, 24289               17-ene.-21 20:46

               Filename:   C:\Users\HERNÁNDEZ\Downloads\16F887A.lst

               ROM used:   1257 words (15%)
                           Largest free fragment is 2048
               RAM used:   70 (19%) at main() level
                           86 (23%) worst case
               Stack used: 1 locations
               Stack size: 8

*
0000:  MOVLW  03
0001:  MOVWF  0A
0002:  GOTO   31C
0003:  NOP
.................... #INCLUDE <16F877A.H> 
.................... //////////// Standard Header file for the PIC16F877A device //////////////// 
.................... /////////////////////////////////////////////////////////////////////////// 
.................... ////        (C) Copyright 1996, 2013 Custom Computer Services          //// 
.................... //// This source code may only be used by licensed users of the CCS C  //// 
.................... //// compiler.  This source code may only be distributed to other      //// 
.................... //// licensed users of the CCS C compiler.  No other use, reproduction //// 
.................... //// or distribution is permitted without written permission.          //// 
.................... //// Derivative programs created using this software in object code    //// 
.................... //// form are not restricted in any way.                               //// 
.................... /////////////////////////////////////////////////////////////////////////// 
.................... #device PIC16F877A 
0004:  MOVLW  8E
0005:  MOVWF  77
0006:  MOVF   5E,W
0007:  MOVWF  78
0008:  MOVF   5D,W
0009:  MOVWF  79
000A:  CLRF   7A
000B:  MOVF   78,F
000C:  BTFSS  03.2
000D:  GOTO   018
000E:  MOVF   79,W
000F:  MOVWF  78
0010:  CLRF   79
0011:  MOVLW  08
0012:  SUBWF  77,F
0013:  MOVF   78,F
0014:  BTFSS  03.2
0015:  GOTO   018
0016:  CLRF   77
0017:  GOTO   020
0018:  BCF    03.0
0019:  BTFSC  78.7
001A:  GOTO   01F
001B:  RLF    79,F
001C:  RLF    78,F
001D:  DECF   77,F
001E:  GOTO   018
001F:  BCF    78.7
0020:  BCF    0A.3
0021:  BCF    0A.4
0022:  GOTO   38A (RETURN)
0023:  MOVF   5D,W
0024:  BTFSC  03.2
0025:  GOTO   093
0026:  MOVWF  65
0027:  MOVF   61,W
0028:  BTFSC  03.2
0029:  GOTO   093
002A:  ADDWF  65,F
002B:  BTFSC  03.0
002C:  GOTO   034
002D:  MOVLW  7F
002E:  SUBWF  65,F
002F:  BTFSS  03.0
0030:  GOTO   093
0031:  BTFSC  03.2
0032:  GOTO   093
0033:  GOTO   038
0034:  MOVLW  81
0035:  ADDWF  65,F
0036:  BTFSC  03.0
0037:  GOTO   093
0038:  MOVF   65,W
0039:  MOVWF  77
003A:  CLRF   78
003B:  CLRF   79
003C:  CLRF   7A
003D:  MOVF   5E,W
003E:  MOVWF  69
003F:  BSF    69.7
0040:  MOVF   5F,W
0041:  MOVWF  68
0042:  MOVF   60,W
0043:  MOVWF  67
0044:  MOVLW  18
0045:  MOVWF  65
0046:  CLRF   66
0047:  BTFSS  67.0
0048:  GOTO   061
0049:  MOVF   64,W
004A:  ADDWF  7A,F
004B:  BTFSS  03.0
004C:  GOTO   053
004D:  INCF   79,F
004E:  BTFSS  03.2
004F:  GOTO   053
0050:  INCF   78,F
0051:  BTFSC  03.2
0052:  BSF    66.7
0053:  MOVF   63,W
0054:  ADDWF  79,F
0055:  BTFSS  03.0
0056:  GOTO   05A
0057:  INCF   78,F
0058:  BTFSC  03.2
0059:  BSF    66.7
005A:  MOVF   62,W
005B:  MOVWF  5F
005C:  BSF    5F.7
005D:  MOVF   5F,W
005E:  ADDWF  78,F
005F:  BTFSC  03.0
0060:  BSF    66.7
0061:  RLF    66,F
0062:  RRF    78,F
0063:  RRF    79,F
0064:  RRF    7A,F
0065:  RRF    69,F
0066:  RRF    68,F
0067:  RRF    67,F
0068:  BCF    03.0
0069:  DECFSZ 65,F
006A:  GOTO   046
006B:  MOVLW  01
006C:  ADDWF  77,F
006D:  BTFSC  03.0
006E:  GOTO   093
006F:  BTFSC  78.7
0070:  GOTO   078
0071:  RLF    69,F
0072:  RLF    7A,F
0073:  RLF    79,F
0074:  RLF    78,F
0075:  DECF   77,F
0076:  BTFSC  03.2
0077:  GOTO   093
0078:  BTFSS  69.7
0079:  GOTO   089
007A:  INCF   7A,F
007B:  BTFSS  03.2
007C:  GOTO   089
007D:  INCF   79,F
007E:  BTFSS  03.2
007F:  GOTO   089
0080:  INCF   78,F
0081:  BTFSS  03.2
0082:  GOTO   089
0083:  RRF    78,F
0084:  RRF    79,F
0085:  RRF    7A,F
0086:  INCF   77,F
0087:  BTFSC  03.2
0088:  GOTO   093
0089:  MOVF   5E,W
008A:  MOVWF  66
008B:  MOVF   62,W
008C:  XORWF  66,F
008D:  BTFSS  66.7
008E:  GOTO   091
008F:  BSF    78.7
0090:  GOTO   097
0091:  BCF    78.7
0092:  GOTO   097
0093:  CLRF   77
0094:  CLRF   78
0095:  CLRF   79
0096:  CLRF   7A
0097:  RETURN
0098:  MOVF   61,W
0099:  BTFSC  03.2
009A:  GOTO   15D
009B:  MOVWF  6D
009C:  MOVF   65,W
009D:  BTFSC  03.2
009E:  GOTO   15D
009F:  SUBWF  6D,F
00A0:  BTFSS  03.0
00A1:  GOTO   0A7
00A2:  MOVLW  7F
00A3:  ADDWF  6D,F
00A4:  BTFSC  03.0
00A5:  GOTO   15D
00A6:  GOTO   0AD
00A7:  MOVLW  81
00A8:  SUBWF  6D,F
00A9:  BTFSS  03.0
00AA:  GOTO   15D
00AB:  BTFSC  03.2
00AC:  GOTO   15D
00AD:  MOVF   6D,W
00AE:  MOVWF  77
00AF:  CLRF   78
00B0:  CLRF   79
00B1:  CLRF   7A
00B2:  CLRF   6C
00B3:  MOVF   62,W
00B4:  MOVWF  6B
00B5:  BSF    6B.7
00B6:  MOVF   63,W
00B7:  MOVWF  6A
00B8:  MOVF   64,W
00B9:  MOVWF  69
00BA:  MOVLW  19
00BB:  MOVWF  6D
00BC:  MOVF   68,W
00BD:  SUBWF  69,F
00BE:  BTFSC  03.0
00BF:  GOTO   0D0
00C0:  MOVLW  01
00C1:  SUBWF  6A,F
00C2:  BTFSC  03.0
00C3:  GOTO   0D0
00C4:  SUBWF  6B,F
00C5:  BTFSC  03.0
00C6:  GOTO   0D0
00C7:  SUBWF  6C,F
00C8:  BTFSC  03.0
00C9:  GOTO   0D0
00CA:  INCF   6C,F
00CB:  INCF   6B,F
00CC:  INCF   6A,F
00CD:  MOVF   68,W
00CE:  ADDWF  69,F
00CF:  GOTO   102
00D0:  MOVF   67,W
00D1:  SUBWF  6A,F
00D2:  BTFSC  03.0
00D3:  GOTO   0EB
00D4:  MOVLW  01
00D5:  SUBWF  6B,F
00D6:  BTFSC  03.0
00D7:  GOTO   0EB
00D8:  SUBWF  6C,F
00D9:  BTFSC  03.0
00DA:  GOTO   0EB
00DB:  INCF   6C,F
00DC:  INCF   6B,F
00DD:  MOVF   67,W
00DE:  ADDWF  6A,F
00DF:  MOVF   68,W
00E0:  ADDWF  69,F
00E1:  BTFSS  03.0
00E2:  GOTO   102
00E3:  INCF   6A,F
00E4:  BTFSS  03.2
00E5:  GOTO   102
00E6:  INCF   6B,F
00E7:  BTFSS  03.2
00E8:  GOTO   102
00E9:  INCF   6C,F
00EA:  GOTO   102
00EB:  MOVF   66,W
00EC:  IORLW  80
00ED:  SUBWF  6B,F
00EE:  BTFSC  03.0
00EF:  GOTO   101
00F0:  MOVLW  01
00F1:  SUBWF  6C,F
00F2:  BTFSC  03.0
00F3:  GOTO   101
00F4:  INCF   6C,F
00F5:  MOVF   66,W
00F6:  IORLW  80
00F7:  ADDWF  6B,F
00F8:  MOVF   67,W
00F9:  ADDWF  6A,F
00FA:  BTFSS  03.0
00FB:  GOTO   0DF
00FC:  INCF   6B,F
00FD:  BTFSS  03.2
00FE:  GOTO   0DF
00FF:  INCF   6C,F
0100:  GOTO   0DF
0101:  BSF    7A.0
0102:  DECFSZ 6D,F
0103:  GOTO   105
0104:  GOTO   110
0105:  BCF    03.0
0106:  RLF    69,F
0107:  RLF    6A,F
0108:  RLF    6B,F
0109:  RLF    6C,F
010A:  BCF    03.0
010B:  RLF    7A,F
010C:  RLF    79,F
010D:  RLF    78,F
010E:  RLF    6E,F
010F:  GOTO   0BC
0110:  BTFSS  6E.0
0111:  GOTO   118
0112:  BCF    03.0
0113:  RRF    78,F
0114:  RRF    79,F
0115:  RRF    7A,F
0116:  RRF    6E,F
0117:  GOTO   11B
0118:  DECF   77,F
0119:  BTFSC  03.2
011A:  GOTO   15D
011B:  BTFSC  6E.7
011C:  GOTO   144
011D:  BCF    03.0
011E:  RLF    69,F
011F:  RLF    6A,F
0120:  RLF    6B,F
0121:  RLF    6C,F
0122:  MOVF   68,W
0123:  SUBWF  69,F
0124:  BTFSC  03.0
0125:  GOTO   130
0126:  MOVLW  01
0127:  SUBWF  6A,F
0128:  BTFSC  03.0
0129:  GOTO   130
012A:  SUBWF  6B,F
012B:  BTFSC  03.0
012C:  GOTO   130
012D:  SUBWF  6C,F
012E:  BTFSS  03.0
012F:  GOTO   153
0130:  MOVF   67,W
0131:  SUBWF  6A,F
0132:  BTFSC  03.0
0133:  GOTO   13B
0134:  MOVLW  01
0135:  SUBWF  6B,F
0136:  BTFSC  03.0
0137:  GOTO   13B
0138:  SUBWF  6C,F
0139:  BTFSS  03.0
013A:  GOTO   153
013B:  MOVF   66,W
013C:  IORLW  80
013D:  SUBWF  6B,F
013E:  BTFSC  03.0
013F:  GOTO   144
0140:  MOVLW  01
0141:  SUBWF  6C,F
0142:  BTFSS  03.0
0143:  GOTO   153
0144:  INCF   7A,F
0145:  BTFSS  03.2
0146:  GOTO   153
0147:  INCF   79,F
0148:  BTFSS  03.2
0149:  GOTO   153
014A:  INCF   78,F
014B:  BTFSS  03.2
014C:  GOTO   153
014D:  INCF   77,F
014E:  BTFSC  03.2
014F:  GOTO   15D
0150:  RRF    78,F
0151:  RRF    79,F
0152:  RRF    7A,F
0153:  MOVF   62,W
0154:  MOVWF  6D
0155:  MOVF   66,W
0156:  XORWF  6D,F
0157:  BTFSS  6D.7
0158:  GOTO   15B
0159:  BSF    78.7
015A:  GOTO   161
015B:  BCF    78.7
015C:  GOTO   161
015D:  CLRF   77
015E:  CLRF   78
015F:  CLRF   79
0160:  CLRF   7A
0161:  BCF    0A.3
0162:  BCF    0A.4
0163:  GOTO   3B0 (RETURN)
0164:  MOVLW  80
0165:  BTFSC  03.1
0166:  XORWF  66,F
0167:  CLRF   6B
0168:  CLRF   6C
0169:  MOVF   62,W
016A:  MOVWF  6A
016B:  MOVF   66,W
016C:  XORWF  6A,F
016D:  MOVF   61,W
016E:  BTFSC  03.2
016F:  GOTO   254
0170:  MOVWF  69
0171:  MOVWF  77
0172:  MOVF   65,W
0173:  BTFSC  03.2
0174:  GOTO   25D
0175:  SUBWF  69,F
0176:  BTFSC  03.2
0177:  GOTO   1F9
0178:  BTFSS  03.0
0179:  GOTO   1B7
017A:  MOVF   66,W
017B:  MOVWF  6F
017C:  BSF    6F.7
017D:  MOVF   67,W
017E:  MOVWF  6E
017F:  MOVF   68,W
0180:  MOVWF  6D
0181:  CLRF   6C
0182:  BCF    03.0
0183:  RRF    6F,F
0184:  RRF    6E,F
0185:  RRF    6D,F
0186:  RRF    6C,F
0187:  DECFSZ 69,F
0188:  GOTO   181
0189:  BTFSS  6A.7
018A:  GOTO   18E
018B:  BSF    6B.0
018C:  GOTO   271
018D:  BCF    6B.0
018E:  BCF    69.0
018F:  BSF    6B.4
0190:  MOVLW  64
0191:  MOVWF  04
0192:  BCF    03.7
0193:  GOTO   286
0194:  BCF    6B.4
0195:  BTFSC  6A.7
0196:  GOTO   1A1
0197:  BTFSS  69.0
0198:  GOTO   1AC
0199:  RRF    6F,F
019A:  RRF    6E,F
019B:  RRF    6D,F
019C:  RRF    6C,F
019D:  INCF   77,F
019E:  BTFSC  03.2
019F:  GOTO   26C
01A0:  GOTO   1AC
01A1:  BTFSC  6F.7
01A2:  GOTO   1AF
01A3:  BCF    03.0
01A4:  RLF    6C,F
01A5:  RLF    6D,F
01A6:  RLF    6E,F
01A7:  RLF    6F,F
01A8:  DECF   77,F
01A9:  BTFSC  03.2
01AA:  GOTO   26C
01AB:  GOTO   1A1
01AC:  BSF    6B.6
01AD:  GOTO   219
01AE:  BCF    6B.6
01AF:  MOVF   62,W
01B0:  MOVWF  6A
01B1:  BTFSS  6A.7
01B2:  GOTO   1B5
01B3:  BSF    6F.7
01B4:  GOTO   265
01B5:  BCF    6F.7
01B6:  GOTO   265
01B7:  MOVF   65,W
01B8:  MOVWF  69
01B9:  MOVWF  77
01BA:  MOVF   61,W
01BB:  SUBWF  69,F
01BC:  MOVF   62,W
01BD:  MOVWF  6F
01BE:  BSF    6F.7
01BF:  MOVF   63,W
01C0:  MOVWF  6E
01C1:  MOVF   64,W
01C2:  MOVWF  6D
01C3:  CLRF   6C
01C4:  BCF    03.0
01C5:  RRF    6F,F
01C6:  RRF    6E,F
01C7:  RRF    6D,F
01C8:  RRF    6C,F
01C9:  DECFSZ 69,F
01CA:  GOTO   1C3
01CB:  BTFSS  6A.7
01CC:  GOTO   1D0
01CD:  BSF    6B.1
01CE:  GOTO   271
01CF:  BCF    6B.1
01D0:  BCF    69.0
01D1:  BSF    6B.5
01D2:  MOVLW  68
01D3:  MOVWF  04
01D4:  BCF    03.7
01D5:  GOTO   286
01D6:  BCF    6B.5
01D7:  BTFSC  6A.7
01D8:  GOTO   1E3
01D9:  BTFSS  69.0
01DA:  GOTO   1EE
01DB:  RRF    6F,F
01DC:  RRF    6E,F
01DD:  RRF    6D,F
01DE:  RRF    6C,F
01DF:  INCF   77,F
01E0:  BTFSC  03.2
01E1:  GOTO   26C
01E2:  GOTO   1EE
01E3:  BTFSC  6F.7
01E4:  GOTO   1F1
01E5:  BCF    03.0
01E6:  RLF    6C,F
01E7:  RLF    6D,F
01E8:  RLF    6E,F
01E9:  RLF    6F,F
01EA:  DECF   77,F
01EB:  BTFSC  03.2
01EC:  GOTO   26C
01ED:  GOTO   1E3
01EE:  BSF    6B.7
01EF:  GOTO   219
01F0:  BCF    6B.7
01F1:  MOVF   66,W
01F2:  MOVWF  6A
01F3:  BTFSS  6A.7
01F4:  GOTO   1F7
01F5:  BSF    6F.7
01F6:  GOTO   265
01F7:  BCF    6F.7
01F8:  GOTO   265
01F9:  MOVF   66,W
01FA:  MOVWF  6F
01FB:  BSF    6F.7
01FC:  MOVF   67,W
01FD:  MOVWF  6E
01FE:  MOVF   68,W
01FF:  MOVWF  6D
0200:  BTFSS  6A.7
0201:  GOTO   206
0202:  BCF    6F.7
0203:  BSF    6B.2
0204:  GOTO   271
0205:  BCF    6B.2
0206:  CLRF   6C
0207:  BCF    69.0
0208:  MOVLW  64
0209:  MOVWF  04
020A:  BCF    03.7
020B:  GOTO   286
020C:  BTFSC  6A.7
020D:  GOTO   22F
020E:  MOVF   62,W
020F:  MOVWF  6A
0210:  BTFSS  69.0
0211:  GOTO   219
0212:  RRF    6F,F
0213:  RRF    6E,F
0214:  RRF    6D,F
0215:  RRF    6C,F
0216:  INCF   77,F
0217:  BTFSC  03.2
0218:  GOTO   26C
0219:  BTFSS  6C.7
021A:  GOTO   22A
021B:  INCF   6D,F
021C:  BTFSS  03.2
021D:  GOTO   22A
021E:  INCF   6E,F
021F:  BTFSS  03.2
0220:  GOTO   22A
0221:  INCF   6F,F
0222:  BTFSS  03.2
0223:  GOTO   22A
0224:  RRF    6F,F
0225:  RRF    6E,F
0226:  RRF    6D,F
0227:  INCF   77,F
0228:  BTFSC  03.2
0229:  GOTO   26C
022A:  BTFSC  6B.6
022B:  GOTO   1AE
022C:  BTFSC  6B.7
022D:  GOTO   1F0
022E:  GOTO   24E
022F:  MOVLW  80
0230:  XORWF  6F,F
0231:  BTFSS  6F.7
0232:  GOTO   237
0233:  GOTO   271
0234:  MOVF   66,W
0235:  MOVWF  6A
0236:  GOTO   244
0237:  MOVF   62,W
0238:  MOVWF  6A
0239:  MOVF   6F,F
023A:  BTFSS  03.2
023B:  GOTO   244
023C:  MOVF   6E,F
023D:  BTFSS  03.2
023E:  GOTO   244
023F:  MOVF   6D,F
0240:  BTFSS  03.2
0241:  GOTO   244
0242:  CLRF   77
0243:  GOTO   265
0244:  BTFSC  6F.7
0245:  GOTO   24E
0246:  BCF    03.0
0247:  RLF    6C,F
0248:  RLF    6D,F
0249:  RLF    6E,F
024A:  RLF    6F,F
024B:  DECFSZ 77,F
024C:  GOTO   244
024D:  GOTO   26C
024E:  BTFSS  6A.7
024F:  GOTO   252
0250:  BSF    6F.7
0251:  GOTO   265
0252:  BCF    6F.7
0253:  GOTO   265
0254:  MOVF   65,W
0255:  MOVWF  77
0256:  MOVF   66,W
0257:  MOVWF  6F
0258:  MOVF   67,W
0259:  MOVWF  6E
025A:  MOVF   68,W
025B:  MOVWF  6D
025C:  GOTO   265
025D:  MOVF   61,W
025E:  MOVWF  77
025F:  MOVF   62,W
0260:  MOVWF  6F
0261:  MOVF   63,W
0262:  MOVWF  6E
0263:  MOVF   64,W
0264:  MOVWF  6D
0265:  MOVF   6F,W
0266:  MOVWF  78
0267:  MOVF   6E,W
0268:  MOVWF  79
0269:  MOVF   6D,W
026A:  MOVWF  7A
026B:  GOTO   2A4
026C:  CLRF   77
026D:  CLRF   78
026E:  CLRF   79
026F:  CLRF   7A
0270:  GOTO   2A4
0271:  CLRF   6C
0272:  COMF   6D,F
0273:  COMF   6E,F
0274:  COMF   6F,F
0275:  COMF   6C,F
0276:  INCF   6C,F
0277:  BTFSS  03.2
0278:  GOTO   27F
0279:  INCF   6D,F
027A:  BTFSS  03.2
027B:  GOTO   27F
027C:  INCF   6E,F
027D:  BTFSC  03.2
027E:  INCF   6F,F
027F:  BTFSC  6B.0
0280:  GOTO   18D
0281:  BTFSC  6B.1
0282:  GOTO   1CF
0283:  BTFSC  6B.2
0284:  GOTO   205
0285:  GOTO   234
0286:  MOVF   00,W
0287:  ADDWF  6D,F
0288:  BTFSS  03.0
0289:  GOTO   290
028A:  INCF   6E,F
028B:  BTFSS  03.2
028C:  GOTO   290
028D:  INCF   6F,F
028E:  BTFSC  03.2
028F:  BSF    69.0
0290:  DECF   04,F
0291:  MOVF   00,W
0292:  ADDWF  6E,F
0293:  BTFSS  03.0
0294:  GOTO   298
0295:  INCF   6F,F
0296:  BTFSC  03.2
0297:  BSF    69.0
0298:  DECF   04,F
0299:  MOVF   00,W
029A:  BTFSS  00.7
029B:  XORLW  80
029C:  ADDWF  6F,F
029D:  BTFSC  03.0
029E:  BSF    69.0
029F:  BTFSC  6B.4
02A0:  GOTO   194
02A1:  BTFSC  6B.5
02A2:  GOTO   1D6
02A3:  GOTO   20C
02A4:  RETURN
02A5:  MOVF   5E,W
02A6:  MOVWF  65
02A7:  MOVF   62,W
02A8:  XORWF  65,F
02A9:  BTFSS  65.7
02AA:  GOTO   2B0
02AB:  BCF    03.2
02AC:  BCF    03.0
02AD:  BTFSC  5E.7
02AE:  BSF    03.0
02AF:  GOTO   2E3
02B0:  MOVF   5E,W
02B1:  MOVWF  65
02B2:  MOVF   61,W
02B3:  MOVWF  66
02B4:  MOVF   5D,W
02B5:  SUBWF  66,F
02B6:  BTFSC  03.2
02B7:  GOTO   2BE
02B8:  BTFSS  65.7
02B9:  GOTO   2E3
02BA:  MOVF   03,W
02BB:  XORLW  01
02BC:  MOVWF  03
02BD:  GOTO   2E3
02BE:  MOVF   62,W
02BF:  MOVWF  66
02C0:  MOVF   5E,W
02C1:  SUBWF  66,F
02C2:  BTFSC  03.2
02C3:  GOTO   2CA
02C4:  BTFSS  65.7
02C5:  GOTO   2E3
02C6:  MOVF   03,W
02C7:  XORLW  01
02C8:  MOVWF  03
02C9:  GOTO   2E3
02CA:  MOVF   63,W
02CB:  MOVWF  66
02CC:  MOVF   5F,W
02CD:  SUBWF  66,F
02CE:  BTFSC  03.2
02CF:  GOTO   2D6
02D0:  BTFSS  65.7
02D1:  GOTO   2E3
02D2:  MOVF   03,W
02D3:  XORLW  01
02D4:  MOVWF  03
02D5:  GOTO   2E3
02D6:  MOVF   64,W
02D7:  MOVWF  66
02D8:  MOVF   60,W
02D9:  SUBWF  66,F
02DA:  BTFSC  03.2
02DB:  GOTO   2E2
02DC:  BTFSS  65.7
02DD:  GOTO   2E3
02DE:  MOVF   03,W
02DF:  XORLW  01
02E0:  MOVWF  03
02E1:  GOTO   2E3
02E2:  BCF    03.0
02E3:  RETURN
02E4:  MOVLW  8E
02E5:  MOVWF  77
02E6:  MOVF   5D,W
02E7:  SUBWF  77,F
02E8:  MOVF   5E,W
02E9:  MOVWF  79
02EA:  MOVF   5F,W
02EB:  MOVWF  78
02EC:  BSF    79.7
02ED:  MOVF   77,F
02EE:  BTFSC  03.2
02EF:  GOTO   2FB
02F0:  BCF    03.0
02F1:  MOVF   79,F
02F2:  BTFSS  03.2
02F3:  GOTO   2F7
02F4:  MOVF   78,F
02F5:  BTFSC  03.2
02F6:  GOTO   2FB
02F7:  RRF    79,F
02F8:  RRF    78,F
02F9:  DECFSZ 77,F
02FA:  GOTO   2F0
02FB:  BTFSS  5E.7
02FC:  GOTO   302
02FD:  COMF   78,F
02FE:  COMF   79,F
02FF:  INCF   78,F
0300:  BTFSC  03.2
0301:  INCF   79,F
0302:  BCF    0A.3
0303:  BCF    0A.4
0304:  GOTO   4BD (RETURN)
....................  
.................... #list 
....................  
.................... #DEVICE ADC=10 
.................... #USE DELAY(CLOCK=4000000) 
0305:  MOVLW  5D
0306:  MOVWF  04
0307:  BCF    03.7
0308:  MOVF   00,W
0309:  BTFSC  03.2
030A:  GOTO   319
030B:  MOVLW  01
030C:  MOVWF  78
030D:  CLRF   77
030E:  DECFSZ 77,F
030F:  GOTO   30E
0310:  DECFSZ 78,F
0311:  GOTO   30D
0312:  MOVLW  4A
0313:  MOVWF  77
0314:  DECFSZ 77,F
0315:  GOTO   314
0316:  GOTO   317
0317:  DECFSZ 00,F
0318:  GOTO   30B
0319:  BCF    0A.3
031A:  BCF    0A.4
031B:  GOTO   4E7 (RETURN)
.................... #FUSES XT,NOWDT 
.................... VOID MAIN(){ 
031C:  MOVF   03,W
031D:  ANDLW  1F
031E:  MOVWF  03
031F:  MOVLW  FF
0320:  MOVWF  20
0321:  BSF    03.5
0322:  BSF    1F.0
0323:  BSF    1F.1
0324:  BSF    1F.2
0325:  BCF    1F.3
0326:  MOVLW  07
0327:  MOVWF  1C
0328:  BCF    03.7
.................... INT16 valor, control; //Variables para lectura de ADC y señal de Control a modulo CCP 
.................... FLOAT a,b,c; //Constantes para parámetros de controlador PID 
.................... FLOAT TEMPERATURA_LIMITE; //Referencia de Temperatura 
.................... FLOAT rt,eT,iT,dT,yT,uT,iT0,eT0; //Variables de controlador PID 
.................... FLOAT max,min; //Variables para anti-windup 
.................... min=0.0; 
0329:  BCF    03.5
032A:  CLRF   5C
032B:  CLRF   5B
032C:  CLRF   5A
032D:  CLRF   59
.................... max=1000.0; 
032E:  CLRF   58
032F:  CLRF   57
0330:  MOVLW  7A
0331:  MOVWF  56
0332:  MOVLW  88
0333:  MOVWF  55
.................... iT0=0.0; 
0334:  CLRF   50
0335:  CLRF   4F
0336:  CLRF   4E
0337:  CLRF   4D
.................... eT0=0.0; 
0338:  CLRF   54
0339:  CLRF   53
033A:  CLRF   52
033B:  CLRF   51
.................... a=0.1243;  
033C:  CLRF   28
033D:  MOVLW  91
033E:  MOVWF  27
033F:  MOVLW  7E
0340:  MOVWF  26
0341:  MOVLW  7B
0342:  MOVWF  25
.................... b=0.0062; 
0343:  MOVLW  5F
0344:  MOVWF  2C
0345:  MOVLW  29
0346:  MOVWF  2B
0347:  MOVLW  4B
0348:  MOVWF  2A
0349:  MOVLW  77
034A:  MOVWF  29
.................... c=0.6215; 
034B:  MOVLW  A0
034C:  MOVWF  30
034D:  MOVLW  1A
034E:  MOVWF  2F
034F:  MOVLW  1F
0350:  MOVWF  2E
0351:  MOVLW  7E
0352:  MOVWF  2D
.................... TEMPERATURA_LIMITE=1200.0; //Set Point r(kT)= 120°C 
0353:  CLRF   34
0354:  CLRF   33
0355:  MOVLW  16
0356:  MOVWF  32
0357:  MOVLW  89
0358:  MOVWF  31
.................... setup_timer_2(t2_div_by_4,249,1); //Configuracion de Timer 2 para establecer frec. PWM a 1kHz 
0359:  MOVLW  00
035A:  MOVWF  78
035B:  IORLW  05
035C:  MOVWF  12
035D:  MOVLW  F9
035E:  BSF    03.5
035F:  MOVWF  12
.................... setup_ccp1(ccp_pwm); //Configurar modulo CCP1 en modo PWM 
0360:  BCF    03.5
0361:  BCF    20.2
0362:  MOVF   20,W
0363:  BSF    03.5
0364:  MOVWF  07
0365:  BCF    03.5
0366:  BCF    07.2
0367:  MOVLW  0C
0368:  MOVWF  17
.................... setup_adc_ports(all_analog); //Configurar ADC 
0369:  BSF    03.5
036A:  BCF    1F.0
036B:  BCF    1F.1
036C:  BCF    1F.2
036D:  BCF    1F.3
.................... setup_adc(adc_clock_internal); 
036E:  BCF    1F.6
036F:  BCF    03.5
0370:  BSF    1F.6
0371:  BSF    1F.7
0372:  BSF    03.5
0373:  BSF    1F.7
0374:  BCF    03.5
0375:  BSF    1F.0
.................... set_adc_channel(0); //Seleccionar Canal 0 para sensor de Temperatura 
0376:  MOVLW  00
0377:  MOVWF  78
0378:  MOVF   1F,W
0379:  ANDLW  C7
037A:  IORWF  78,W
037B:  MOVWF  1F
.................... while(true){ 
.................... valor=read_adc(); //Leer ADC 
037C:  BSF    1F.2
037D:  BTFSC  1F.2
037E:  GOTO   37D
037F:  BSF    03.5
0380:  MOVF   1E,W
0381:  BCF    03.5
0382:  MOVWF  21
0383:  MOVF   1E,W
0384:  MOVWF  22
.................... yT=5000.0*valor/1024.0; //Escalizar señal de salida y(kT) 
0385:  MOVF   22,W
0386:  MOVWF  5E
0387:  MOVF   21,W
0388:  MOVWF  5D
0389:  GOTO   004
038A:  CLRF   60
038B:  MOVLW  40
038C:  MOVWF  5F
038D:  MOVLW  1C
038E:  MOVWF  5E
038F:  MOVLW  8B
0390:  MOVWF  5D
0391:  MOVF   7A,W
0392:  MOVWF  64
0393:  MOVF   79,W
0394:  MOVWF  63
0395:  MOVF   78,W
0396:  MOVWF  62
0397:  MOVF   77,W
0398:  MOVWF  61
0399:  CALL   023
039A:  MOVF   7A,W
039B:  MOVWF  60
039C:  MOVF   79,W
039D:  MOVWF  5F
039E:  MOVF   78,W
039F:  MOVWF  5E
03A0:  MOVF   77,W
03A1:  MOVWF  5D
03A2:  MOVF   7A,W
03A3:  MOVWF  64
03A4:  MOVF   79,W
03A5:  MOVWF  63
03A6:  MOVF   78,W
03A7:  MOVWF  62
03A8:  MOVF   77,W
03A9:  MOVWF  61
03AA:  CLRF   68
03AB:  CLRF   67
03AC:  CLRF   66
03AD:  MOVLW  89
03AE:  MOVWF  65
03AF:  GOTO   098
03B0:  MOVF   7A,W
03B1:  MOVWF  48
03B2:  MOVF   79,W
03B3:  MOVWF  47
03B4:  MOVF   78,W
03B5:  MOVWF  46
03B6:  MOVF   77,W
03B7:  MOVWF  45
.................... rT=TEMPERATURA_LIMITE; 
03B8:  MOVF   34,W
03B9:  MOVWF  38
03BA:  MOVF   33,W
03BB:  MOVWF  37
03BC:  MOVF   32,W
03BD:  MOVWF  36
03BE:  MOVF   31,W
03BF:  MOVWF  35
.................... eT=rT-yT; //Calcular senal de error e(kT) 
03C0:  BSF    03.1
03C1:  MOVF   38,W
03C2:  MOVWF  64
03C3:  MOVF   37,W
03C4:  MOVWF  63
03C5:  MOVF   36,W
03C6:  MOVWF  62
03C7:  MOVF   35,W
03C8:  MOVWF  61
03C9:  MOVF   48,W
03CA:  MOVWF  68
03CB:  MOVF   47,W
03CC:  MOVWF  67
03CD:  MOVF   46,W
03CE:  MOVWF  66
03CF:  MOVF   45,W
03D0:  MOVWF  65
03D1:  CALL   164
03D2:  MOVF   7A,W
03D3:  MOVWF  3C
03D4:  MOVF   79,W
03D5:  MOVWF  3B
03D6:  MOVF   78,W
03D7:  MOVWF  3A
03D8:  MOVF   77,W
03D9:  MOVWF  39
.................... iT=b*eT+iT0; //Calcular termino integrativo i(kT) 
03DA:  MOVF   2C,W
03DB:  MOVWF  60
03DC:  MOVF   2B,W
03DD:  MOVWF  5F
03DE:  MOVF   2A,W
03DF:  MOVWF  5E
03E0:  MOVF   29,W
03E1:  MOVWF  5D
03E2:  MOVF   3C,W
03E3:  MOVWF  64
03E4:  MOVF   3B,W
03E5:  MOVWF  63
03E6:  MOVF   3A,W
03E7:  MOVWF  62
03E8:  MOVF   39,W
03E9:  MOVWF  61
03EA:  CALL   023
03EB:  MOVF   7A,W
03EC:  MOVWF  60
03ED:  MOVF   79,W
03EE:  MOVWF  5F
03EF:  MOVF   78,W
03F0:  MOVWF  5E
03F1:  MOVF   77,W
03F2:  MOVWF  5D
03F3:  BCF    03.1
03F4:  MOVF   7A,W
03F5:  MOVWF  64
03F6:  MOVF   79,W
03F7:  MOVWF  63
03F8:  MOVF   78,W
03F9:  MOVWF  62
03FA:  MOVF   77,W
03FB:  MOVWF  61
03FC:  MOVF   50,W
03FD:  MOVWF  68
03FE:  MOVF   4F,W
03FF:  MOVWF  67
0400:  MOVF   4E,W
0401:  MOVWF  66
0402:  MOVF   4D,W
0403:  MOVWF  65
0404:  CALL   164
0405:  MOVF   7A,W
0406:  MOVWF  40
0407:  MOVF   79,W
0408:  MOVWF  3F
0409:  MOVF   78,W
040A:  MOVWF  3E
040B:  MOVF   77,W
040C:  MOVWF  3D
.................... dT=c*(eT-eT0); //Calcular termino derivativo d(kT) 
040D:  BSF    03.1
040E:  MOVF   3C,W
040F:  MOVWF  64
0410:  MOVF   3B,W
0411:  MOVWF  63
0412:  MOVF   3A,W
0413:  MOVWF  62
0414:  MOVF   39,W
0415:  MOVWF  61
0416:  MOVF   54,W
0417:  MOVWF  68
0418:  MOVF   53,W
0419:  MOVWF  67
041A:  MOVF   52,W
041B:  MOVWF  66
041C:  MOVF   51,W
041D:  MOVWF  65
041E:  CALL   164
041F:  MOVF   30,W
0420:  MOVWF  60
0421:  MOVF   2F,W
0422:  MOVWF  5F
0423:  MOVF   2E,W
0424:  MOVWF  5E
0425:  MOVF   2D,W
0426:  MOVWF  5D
0427:  MOVF   7A,W
0428:  MOVWF  64
0429:  MOVF   79,W
042A:  MOVWF  63
042B:  MOVF   78,W
042C:  MOVWF  62
042D:  MOVF   77,W
042E:  MOVWF  61
042F:  CALL   023
0430:  MOVF   7A,W
0431:  MOVWF  44
0432:  MOVF   79,W
0433:  MOVWF  43
0434:  MOVF   78,W
0435:  MOVWF  42
0436:  MOVF   77,W
0437:  MOVWF  41
.................... uT=iT+a*eT+dT; //Calcular senal de control u(kT) 
0438:  MOVF   28,W
0439:  MOVWF  60
043A:  MOVF   27,W
043B:  MOVWF  5F
043C:  MOVF   26,W
043D:  MOVWF  5E
043E:  MOVF   25,W
043F:  MOVWF  5D
0440:  MOVF   3C,W
0441:  MOVWF  64
0442:  MOVF   3B,W
0443:  MOVWF  63
0444:  MOVF   3A,W
0445:  MOVWF  62
0446:  MOVF   39,W
0447:  MOVWF  61
0448:  CALL   023
0449:  BCF    03.1
044A:  MOVF   40,W
044B:  MOVWF  64
044C:  MOVF   3F,W
044D:  MOVWF  63
044E:  MOVF   3E,W
044F:  MOVWF  62
0450:  MOVF   3D,W
0451:  MOVWF  61
0452:  MOVF   7A,W
0453:  MOVWF  68
0454:  MOVF   79,W
0455:  MOVWF  67
0456:  MOVF   78,W
0457:  MOVWF  66
0458:  MOVF   77,W
0459:  MOVWF  65
045A:  CALL   164
045B:  MOVF   7A,W
045C:  MOVWF  60
045D:  MOVF   79,W
045E:  MOVWF  5F
045F:  MOVF   78,W
0460:  MOVWF  5E
0461:  MOVF   77,W
0462:  MOVWF  5D
0463:  BCF    03.1
0464:  MOVF   7A,W
0465:  MOVWF  64
0466:  MOVF   79,W
0467:  MOVWF  63
0468:  MOVF   78,W
0469:  MOVWF  62
046A:  MOVF   77,W
046B:  MOVWF  61
046C:  MOVF   44,W
046D:  MOVWF  68
046E:  MOVF   43,W
046F:  MOVWF  67
0470:  MOVF   42,W
0471:  MOVWF  66
0472:  MOVF   41,W
0473:  MOVWF  65
0474:  CALL   164
0475:  MOVF   7A,W
0476:  MOVWF  4C
0477:  MOVF   79,W
0478:  MOVWF  4B
0479:  MOVF   78,W
047A:  MOVWF  4A
047B:  MOVF   77,W
047C:  MOVWF  49
.................... if (uT>max){ //Anti-windup 
047D:  MOVF   58,W
047E:  MOVWF  60
047F:  MOVF   57,W
0480:  MOVWF  5F
0481:  MOVF   56,W
0482:  MOVWF  5E
0483:  MOVF   55,W
0484:  MOVWF  5D
0485:  MOVF   4C,W
0486:  MOVWF  64
0487:  MOVF   4B,W
0488:  MOVWF  63
0489:  MOVF   4A,W
048A:  MOVWF  62
048B:  MOVF   49,W
048C:  MOVWF  61
048D:  CALL   2A5
048E:  BTFSS  03.0
048F:  GOTO   499
.................... uT=max; 
0490:  MOVF   58,W
0491:  MOVWF  4C
0492:  MOVF   57,W
0493:  MOVWF  4B
0494:  MOVF   56,W
0495:  MOVWF  4A
0496:  MOVF   55,W
0497:  MOVWF  49
.................... } 
0498:  GOTO   4B4
.................... else { 
....................  if (uT<min){ 
0499:  MOVF   4C,W
049A:  MOVWF  60
049B:  MOVF   4B,W
049C:  MOVWF  5F
049D:  MOVF   4A,W
049E:  MOVWF  5E
049F:  MOVF   49,W
04A0:  MOVWF  5D
04A1:  MOVF   5C,W
04A2:  MOVWF  64
04A3:  MOVF   5B,W
04A4:  MOVWF  63
04A5:  MOVF   5A,W
04A6:  MOVWF  62
04A7:  MOVF   59,W
04A8:  MOVWF  61
04A9:  CALL   2A5
04AA:  BTFSS  03.0
04AB:  GOTO   4B4
.................... uT=min; 
04AC:  MOVF   5C,W
04AD:  MOVWF  4C
04AE:  MOVF   5B,W
04AF:  MOVWF  4B
04B0:  MOVF   5A,W
04B1:  MOVWF  4A
04B2:  MOVF   59,W
04B3:  MOVWF  49
....................  } 
.................... } 
.................... control=uT; 
04B4:  MOVF   4C,W
04B5:  MOVWF  60
04B6:  MOVF   4B,W
04B7:  MOVWF  5F
04B8:  MOVF   4A,W
04B9:  MOVWF  5E
04BA:  MOVF   49,W
04BB:  MOVWF  5D
04BC:  GOTO   2E4
04BD:  MOVF   79,W
04BE:  MOVWF  24
04BF:  MOVF   78,W
04C0:  MOVWF  23
.................... set_pwm1_duty(control); //Transferencia de senal de control al actuador 
04C1:  MOVF   24,W
04C2:  MOVWF  79
04C3:  MOVF   23,W
04C4:  MOVWF  78
04C5:  RRF    79,F
04C6:  RRF    78,F
04C7:  RRF    79,F
04C8:  RRF    78,F
04C9:  RRF    79,F
04CA:  MOVF   78,W
04CB:  MOVWF  15
04CC:  RRF    79,F
04CD:  RRF    79,W
04CE:  ANDLW  30
04CF:  MOVWF  77
04D0:  MOVF   17,W
04D1:  ANDLW  CF
04D2:  IORWF  77,W
04D3:  MOVWF  17
.................... iT0=iT; 
04D4:  MOVF   40,W
04D5:  MOVWF  50
04D6:  MOVF   3F,W
04D7:  MOVWF  4F
04D8:  MOVF   3E,W
04D9:  MOVWF  4E
04DA:  MOVF   3D,W
04DB:  MOVWF  4D
.................... eT0=eT; 
04DC:  MOVF   3C,W
04DD:  MOVWF  54
04DE:  MOVF   3B,W
04DF:  MOVWF  53
04E0:  MOVF   3A,W
04E1:  MOVWF  52
04E2:  MOVF   39,W
04E3:  MOVWF  51
.................... delay_ms(100); //Periodo de muestreo T=0.1s 
04E4:  MOVLW  64
04E5:  MOVWF  5D
04E6:  GOTO   305
04E7:  GOTO   37C
....................  } 
.................... }  
04E8:  SLEEP

Configuration Fuses:
   Word  1: 3F71   XT NOWDT PUT BROWNOUT NOLVP NOCPD NOWRT NODEBUG NOPROTECT
